; Function Attrs: nounwind uwtable
define i64 @l_Lean_Meta_DiscrTree_Key_hash(ptr noundef %0) local_unnamed_addr #0 {
  %2 = ptrtoint ptr %0 to i64
  %3 = and i64 %2, 1
  %.not.i = icmp eq i64 %3, 0
  br i1 %.not.i, label %7, label %4

4:                                                ; preds = %1
  %5 = lshr i64 %2, 1
  %6 = trunc i64 %5 to i32
  br label %lean_obj_tag.exit

7:                                                ; preds = %1
  %8 = getelementptr i8, ptr %0, i64 4
  %.val.i = load i32, ptr %8, align 4
  %9 = lshr i32 %.val.i, 24
  br label %lean_obj_tag.exit

lean_obj_tag.exit:                                ; preds = %4, %7
  %.0.i = phi i32 [ %6, %4 ], [ %9, %7 ]
  switch i32 %.0.i, label %47 [
    i32 0, label %10
    i32 1, label %25
    i32 2, label %40
    i32 3, label %71
    i32 4, label %45
    i32 5, label %46
  ]

10:                                               ; preds = %lean_obj_tag.exit
  %11 = getelementptr inbounds nuw i8, ptr %0, i64 8
  %12 = load ptr, ptr %11, align 8, !tbaa !4
  %13 = getelementptr inbounds nuw i8, ptr %0, i64 16
  %14 = load ptr, ptr %13, align 8, !tbaa !4
  %15 = tail call i64 @l_Lean_Name_hash___override(ptr noundef %12) #3
  %16 = ptrtoint ptr %14 to i64
  %17 = and i64 %16, 1
  %.not.i38 = icmp eq i64 %17, 0
  br i1 %.not.i38, label %20, label %18

18:                                               ; preds = %10
  %19 = lshr i64 %16, 1
  br label %lean_uint64_of_nat.exit

20:                                               ; preds = %10
  %21 = tail call i64 @lean_uint64_of_big_nat(ptr noundef %14) #3
  br label %lean_uint64_of_nat.exit

lean_uint64_of_nat.exit:                          ; preds = %18, %20
  %22 = phi i64 [ %19, %18 ], [ %21, %20 ]
  %23 = tail call i64 @lean_uint64_mix_hash(i64 noundef %15, i64 noundef %22) #3
  %24 = tail call i64 @lean_uint64_mix_hash(i64 noundef 5237, i64 noundef %23) #3
  br label %71

25:                                               ; preds = %lean_obj_tag.exit
  %26 = getelementptr inbounds nuw i8, ptr %0, i64 8
  %27 = load ptr, ptr %26, align 8, !tbaa !4
  %28 = getelementptr inbounds nuw i8, ptr %0, i64 16
  %29 = load ptr, ptr %28, align 8, !tbaa !4
  %30 = tail call i64 @l___private_Lean_Expr_0__Lean_hashFVarId____x40_Lean_Expr___hyg_1730_(ptr noundef %27) #3
  %31 = ptrtoint ptr %29 to i64
  %32 = and i64 %31, 1
  %.not.i39 = icmp eq i64 %32, 0
  br i1 %.not.i39, label %35, label %33

33:                                               ; preds = %25
  %34 = lshr i64 %31, 1
  br label %lean_uint64_of_nat.exit40

35:                                               ; preds = %25
  %36 = tail call i64 @lean_uint64_of_big_nat(ptr noundef %29) #3
  br label %lean_uint64_of_nat.exit40

lean_uint64_of_nat.exit40:                        ; preds = %33, %35
  %37 = phi i64 [ %34, %33 ], [ %36, %35 ]
  %38 = tail call i64 @lean_uint64_mix_hash(i64 noundef %30, i64 noundef %37) #3
  %39 = tail call i64 @lean_uint64_mix_hash(i64 noundef 3541, i64 noundef %38) #3
  br label %71

40:                                               ; preds = %lean_obj_tag.exit
  %41 = getelementptr inbounds nuw i8, ptr %0, i64 8
  %42 = load ptr, ptr %41, align 8, !tbaa !4
  %43 = tail call i64 @l_Lean_Literal_hash(ptr noundef %42) #3
  %44 = tail call i64 @lean_uint64_mix_hash(i64 noundef 1879, i64 noundef %43) #3
  br label %71

45:                                               ; preds = %lean_obj_tag.exit
  br label %71

46:                                               ; preds = %lean_obj_tag.exit
  br label %71

47:                                               ; preds = %lean_obj_tag.exit
  %48 = getelementptr inbounds nuw i8, ptr %0, i64 8
  %49 = load ptr, ptr %48, align 8, !tbaa !4
  %50 = getelementptr inbounds nuw i8, ptr %0, i64 16
  %51 = load ptr, ptr %50, align 8, !tbaa !4
  %52 = getelementptr inbounds nuw i8, ptr %0, i64 24
  %53 = load ptr, ptr %52, align 8, !tbaa !4
  %54 = ptrtoint ptr %53 to i64
  %55 = and i64 %54, 1
  %.not.i41 = icmp eq i64 %55, 0
  br i1 %.not.i41, label %58, label %56

56:                                               ; preds = %47
  %57 = lshr i64 %54, 1
  br label %lean_uint64_of_nat.exit42

58:                                               ; preds = %47
  %59 = tail call i64 @lean_uint64_of_big_nat(ptr noundef %53) #3
  br label %lean_uint64_of_nat.exit42

lean_uint64_of_nat.exit42:                        ; preds = %56, %58
  %60 = phi i64 [ %57, %56 ], [ %59, %58 ]
  %61 = tail call i64 @l_Lean_Name_hash___override(ptr noundef %49) #3
  %62 = ptrtoint ptr %51 to i64
  %63 = and i64 %62, 1
  %.not.i43 = icmp eq i64 %63, 0
  br i1 %.not.i43, label %66, label %64

64:                                               ; preds = %lean_uint64_of_nat.exit42
  %65 = lshr i64 %62, 1
  br label %lean_uint64_of_nat.exit44

66:                                               ; preds = %lean_uint64_of_nat.exit42
  %67 = tail call i64 @lean_uint64_of_big_nat(ptr noundef %51) #3
  br label %lean_uint64_of_nat.exit44

lean_uint64_of_nat.exit44:                        ; preds = %64, %66
  %68 = phi i64 [ %65, %64 ], [ %67, %66 ]
  %69 = tail call i64 @lean_uint64_mix_hash(i64 noundef %61, i64 noundef %68) #3
  %70 = tail call i64 @lean_uint64_mix_hash(i64 noundef %60, i64 noundef %69) #3
  br label %71

71:                                               ; preds = %lean_obj_tag.exit, %lean_uint64_of_nat.exit44, %46, %45, %40, %lean_uint64_of_nat.exit40, %lean_uint64_of_nat.exit
  %.0 = phi i64 [ %70, %lean_uint64_of_nat.exit44 ], [ 17, %46 ], [ 2411, %45 ], [ %44, %40 ], [ %39, %lean_uint64_of_nat.exit40 ], [ %24, %lean_uint64_of_nat.exit ], [ 7883, %lean_obj_tag.exit ]
  ret i64 %.0
}